; Function Attrs: mustprogress uwtable
define dso_local void @_ZNK24cmInstallExportGenerator16TempDirCalculateB5cxx11Ev(ptr dead_on_unwind noalias writable sret(%"class.std::__cxx11::basic_string") align 8 %0, ptr noundef nonnull align 8 dereferenceable(424) %1) local_unnamed_addr #3 align 2 personality ptr @__gxx_personality_v0 {
  %3 = alloca [2 x %"struct.std::pair.101"], align 8
  %4 = alloca %class.cmCryptoHash, align 8
  %5 = alloca %"class.std::__cxx11::basic_string", align 8
  %6 = getelementptr inbounds i8, ptr %1, i64 344
  %7 = load ptr, ptr %6, align 8
  %8 = tail call noundef nonnull align 8 dereferenceable(32) ptr @_ZNK16cmLocalGenerator25GetCurrentBinaryDirectoryB5cxx11Ev(ptr noundef nonnull align 8 dereferenceable(824) %7)
  call void @llvm.lifetime.start.p0(i64 48, ptr nonnull %3)
  %9 = tail call { i64, ptr } @_ZNKSt7__cxx1112basic_stringIcSt11char_traitsIcESaIcEEcvSt17basic_string_viewIcS2_EEv(ptr noundef nonnull align 8 dereferenceable(32) %8) #15, !noalias !11
  %10 = extractvalue { i64, ptr } %9, 0
  %11 = extractvalue { i64, ptr } %9, 1
  store i64 %10, ptr %3, align 8, !alias.scope !14, !noalias !11
  %.sroa.2.0..sroa_idx.i.i = getelementptr inbounds i8, ptr %3, i64 8
  store ptr %11, ptr %.sroa.2.0..sroa_idx.i.i, align 8, !alias.scope !14, !noalias !11
  %12 = getelementptr inbounds i8, ptr %3, i64 16
  store ptr null, ptr %12, align 8, !alias.scope !14, !noalias !11
  %13 = getelementptr inbounds i8, ptr %3, i64 24
  store i64 18, ptr %13, align 8, !alias.scope !17, !noalias !11
  %.sroa.2.0..sroa_idx.i6.i = getelementptr inbounds i8, ptr %3, i64 32
  store ptr @.str, ptr %.sroa.2.0..sroa_idx.i6.i, align 8, !alias.scope !17, !noalias !11
  %14 = getelementptr inbounds i8, ptr %3, i64 40
  store ptr null, ptr %14, align 8, !alias.scope !17, !noalias !11
  call void @_Z10cmCatViewsSt16initializer_listISt4pairISt17basic_string_viewIcSt11char_traitsIcEEPNSt7__cxx1112basic_stringIcS3_SaIcEEEEE(ptr dead_on_unwind writable sret(%"class.std::__cxx11::basic_string") align 8 %0, ptr nonnull %3, i64 2)
  call void @llvm.lifetime.end.p0(i64 48, ptr nonnull %3)
  %15 = getelementptr inbounds i8, ptr %1, i64 112
  %16 = call noundef zeroext i1 @_ZNKSt7__cxx1112basic_stringIcSt11char_traitsIcESaIcEE5emptyEv(ptr noundef nonnull align 8 dereferenceable(32) %15) #15
  br i1 %16, label %34, label %17

17:                                               ; preds = %2
  invoke void @_ZN12cmCryptoHashC1ENS_4AlgoE(ptr noundef nonnull align 8 dereferenceable(16) %4, i32 noundef 0)
          to label %18 unwind label %27

18:                                               ; preds = %17
  %19 = invoke noundef nonnull align 8 dereferenceable(32) ptr @_ZNSt7__cxx1112basic_stringIcSt11char_traitsIcESaIcEEpLEc(ptr noundef nonnull align 8 dereferenceable(32) %0, i8 noundef signext 47)
          to label %20 unwind label %29

20:                                               ; preds = %18
  %21 = call { i64, ptr } @_ZNKSt7__cxx1112basic_stringIcSt11char_traitsIcESaIcEEcvSt17basic_string_viewIcS2_EEv(ptr noundef nonnull align 8 dereferenceable(32) %15) #15
  %22 = extractvalue { i64, ptr } %21, 0
  %23 = extractvalue { i64, ptr } %21, 1
  invoke void @_ZN12cmCryptoHash10HashStringB5cxx11ESt17basic_string_viewIcSt11char_traitsIcEE(ptr dead_on_unwind nonnull writable sret(%"class.std::__cxx11::basic_string") align 8 %5, ptr noundef nonnull align 8 dereferenceable(16) %4, i64 %22, ptr %23)
          to label %24 unwind label %29

24:                                               ; preds = %20
  %25 = invoke noundef nonnull align 8 dereferenceable(32) ptr @_ZNSt7__cxx1112basic_stringIcSt11char_traitsIcESaIcEEpLERKS4_(ptr noundef nonnull align 8 dereferenceable(32) %0, ptr noundef nonnull align 8 dereferenceable(32) %5)
          to label %26 unwind label %31

26:                                               ; preds = %24
  call void @_ZNSt7__cxx1112basic_stringIcSt11char_traitsIcESaIcEED1Ev(ptr noundef nonnull align 8 dereferenceable(32) %5) #15
  call void @_ZN12cmCryptoHashD1Ev(ptr noundef nonnull align 8 dereferenceable(16) %4) #15
  br label %34

27:                                               ; preds = %17
  %28 = landingpad { ptr, i32 }
          cleanup
  br label %35

29:                                               ; preds = %20, %18
  %30 = landingpad { ptr, i32 }
          cleanup
  br label %33

31:                                               ; preds = %24
  %32 = landingpad { ptr, i32 }
          cleanup
  call void @_ZNSt7__cxx1112basic_stringIcSt11char_traitsIcESaIcEED1Ev(ptr noundef nonnull align 8 dereferenceable(32) %5) #15
  br label %33

33:                                               ; preds = %31, %29
  %.pn = phi { ptr, i32 } [ %32, %31 ], [ %30, %29 ]
  call void @_ZN12cmCryptoHashD1Ev(ptr noundef nonnull align 8 dereferenceable(16) %4) #15
  br label %35

34:                                               ; preds = %26, %2
  ret void

35:                                               ; preds = %33, %27
  %.pn.pn = phi { ptr, i32 } [ %.pn, %33 ], [ %28, %27 ]
  call void @_ZNSt7__cxx1112basic_stringIcSt11char_traitsIcESaIcEED1Ev(ptr noundef nonnull align 8 dereferenceable(32) %0) #15
  resume { ptr, i32 } %.pn.pn
}